; Function Attrs: nounwind uwtable
define noalias noundef nonnull ptr @l_Lean_Compiler_LCNF_JoinPointContextExtender_extend_go___lambda__6(ptr noundef %0, ptr noundef %1, ptr noundef %2, ptr noundef %3, ptr readnone captures(none) %4, ptr readnone captures(none) %5, ptr readnone captures(none) %6, ptr readnone captures(none) %7, ptr readnone captures(none) %8, ptr readnone captures(none) %9, ptr readnone captures(none) %10, ptr readnone captures(none) %11, ptr noundef %12) local_unnamed_addr #1 {
  %14 = tail call zeroext i8 @lean_name_eq(ptr noundef %0, ptr noundef %0) #5
  %15 = icmp eq i8 %14, 0
  br i1 %15, label %16, label %35

16:                                               ; preds = %13
  %17 = ptrtoint ptr %2 to i64
  %18 = and i64 %17, 1
  %.not51 = icmp eq i64 %18, 0
  br i1 %.not51, label %19, label %lean_dec.exit37

19:                                               ; preds = %16
  %20 = load i32, ptr %2, align 4, !tbaa !8
  %21 = icmp sgt i32 %20, 1
  br i1 %21, label %22, label %24, !prof !11

22:                                               ; preds = %19
  %23 = add nsw i32 %20, -1
  store i32 %23, ptr %2, align 4, !tbaa !8
  br label %lean_dec.exit37

24:                                               ; preds = %19
  %.not.i = icmp eq i32 %20, 0
  br i1 %.not.i, label %lean_dec.exit37, label %25

25:                                               ; preds = %24
  tail call void @lean_dec_ref_cold(ptr noundef nonnull %2) #5
  br label %lean_dec.exit37

lean_dec.exit37:                                  ; preds = %25, %24, %22, %16
  tail call void @lean_inc_heartbeat() #5
  %26 = tail call noalias ptr @mi_malloc_small(i64 noundef 24) #5
  %27 = icmp eq ptr %26, null
  br i1 %27, label %28, label %lean_alloc_ctor.exit

28:                                               ; preds = %lean_dec.exit37
  tail call void @lean_internal_panic_out_of_memory() #6
  unreachable

lean_alloc_ctor.exit:                             ; preds = %lean_dec.exit37
  %29 = getelementptr inbounds nuw i8, ptr %26, i64 4
  store i32 1, ptr %26, align 4, !tbaa !8
  store i32 50462744, ptr %29, align 4
  %30 = getelementptr inbounds nuw i8, ptr %26, i64 8
  store ptr %0, ptr %30, align 8, !tbaa !4
  %31 = getelementptr inbounds nuw i8, ptr %26, i64 16
  store ptr %3, ptr %31, align 8, !tbaa !4
  tail call void @lean_inc_heartbeat() #5
  %32 = tail call noalias ptr @mi_malloc_small(i64 noundef 24) #5
  %33 = icmp eq ptr %32, null
  br i1 %33, label %34, label %lean_alloc_ctor.exit44

34:                                               ; preds = %lean_alloc_ctor.exit
  tail call void @lean_internal_panic_out_of_memory() #6
  unreachable

35:                                               ; preds = %13
  %.not = icmp eq ptr %1, %3
  br i1 %.not, label %55, label %36

36:                                               ; preds = %35
  %37 = ptrtoint ptr %2 to i64
  %38 = and i64 %37, 1
  %.not50 = icmp eq i64 %38, 0
  br i1 %.not50, label %39, label %lean_dec.exit36

39:                                               ; preds = %36
  %40 = load i32, ptr %2, align 4, !tbaa !8
  %41 = icmp sgt i32 %40, 1
  br i1 %41, label %42, label %44, !prof !11

42:                                               ; preds = %39
  %43 = add nsw i32 %40, -1
  store i32 %43, ptr %2, align 4, !tbaa !8
  br label %lean_dec.exit36

44:                                               ; preds = %39
  %.not.i38 = icmp eq i32 %40, 0
  br i1 %.not.i38, label %lean_dec.exit36, label %45

45:                                               ; preds = %44
  tail call void @lean_dec_ref_cold(ptr noundef nonnull %2) #5
  br label %lean_dec.exit36

lean_dec.exit36:                                  ; preds = %45, %44, %42, %36
  tail call void @lean_inc_heartbeat() #5
  %46 = tail call noalias ptr @mi_malloc_small(i64 noundef 24) #5
  %47 = icmp eq ptr %46, null
  br i1 %47, label %48, label %lean_alloc_ctor.exit45

48:                                               ; preds = %lean_dec.exit36
  tail call void @lean_internal_panic_out_of_memory() #6
  unreachable

lean_alloc_ctor.exit45:                           ; preds = %lean_dec.exit36
  %49 = getelementptr inbounds nuw i8, ptr %46, i64 4
  store i32 1, ptr %46, align 4, !tbaa !8
  store i32 50462744, ptr %49, align 4
  %50 = getelementptr inbounds nuw i8, ptr %46, i64 8
  store ptr %0, ptr %50, align 8, !tbaa !4
  %51 = getelementptr inbounds nuw i8, ptr %46, i64 16
  store ptr %3, ptr %51, align 8, !tbaa !4
  tail call void @lean_inc_heartbeat() #5
  %52 = tail call noalias ptr @mi_malloc_small(i64 noundef 24) #5
  %53 = icmp eq ptr %52, null
  br i1 %53, label %54, label %lean_alloc_ctor.exit44

54:                                               ; preds = %lean_alloc_ctor.exit45
  tail call void @lean_internal_panic_out_of_memory() #6
  unreachable

55:                                               ; preds = %35
  %56 = ptrtoint ptr %1 to i64
  %57 = and i64 %56, 1
  %.not48 = icmp eq i64 %57, 0
  br i1 %.not48, label %58, label %lean_dec.exit35

58:                                               ; preds = %55
  %59 = load i32, ptr %3, align 4, !tbaa !8
  %60 = icmp sgt i32 %59, 1
  br i1 %60, label %61, label %63, !prof !11

61:                                               ; preds = %58
  %62 = add nsw i32 %59, -1
  store i32 %62, ptr %3, align 4, !tbaa !8
  br label %lean_dec.exit35

63:                                               ; preds = %58
  %.not.i40 = icmp eq i32 %59, 0
  br i1 %.not.i40, label %lean_dec.exit35, label %64

64:                                               ; preds = %63
  tail call void @lean_dec_ref_cold(ptr noundef nonnull %3) #5
  br label %lean_dec.exit35

lean_dec.exit35:                                  ; preds = %64, %63, %61, %55
  %65 = ptrtoint ptr %0 to i64
  %66 = and i64 %65, 1
  %.not49 = icmp eq i64 %66, 0
  br i1 %.not49, label %67, label %lean_dec.exit

67:                                               ; preds = %lean_dec.exit35
  %68 = load i32, ptr %0, align 4, !tbaa !8
  %69 = icmp sgt i32 %68, 1
  br i1 %69, label %70, label %72, !prof !11

70:                                               ; preds = %67
  %71 = add nsw i32 %68, -1
  store i32 %71, ptr %0, align 4, !tbaa !8
  br label %lean_dec.exit

72:                                               ; preds = %67
  %.not.i42 = icmp eq i32 %68, 0
  br i1 %.not.i42, label %lean_dec.exit, label %73

73:                                               ; preds = %72
  tail call void @lean_dec_ref_cold(ptr noundef nonnull %0) #5
  br label %lean_dec.exit

lean_dec.exit:                                    ; preds = %73, %72, %70, %lean_dec.exit35
  tail call void @lean_inc_heartbeat() #5
  %74 = tail call noalias ptr @mi_malloc_small(i64 noundef 24) #5
  %75 = icmp eq ptr %74, null
  br i1 %75, label %76, label %lean_alloc_ctor.exit44

76:                                               ; preds = %lean_dec.exit
  tail call void @lean_internal_panic_out_of_memory() #6
  unreachable

lean_alloc_ctor.exit44:                           ; preds = %lean_dec.exit, %lean_alloc_ctor.exit45, %lean_alloc_ctor.exit
  %.sink57 = phi ptr [ %32, %lean_alloc_ctor.exit ], [ %52, %lean_alloc_ctor.exit45 ], [ %74, %lean_dec.exit ]
  %.sink = phi ptr [ %26, %lean_alloc_ctor.exit ], [ %46, %lean_alloc_ctor.exit45 ], [ %2, %lean_dec.exit ]
  %77 = getelementptr inbounds nuw i8, ptr %.sink57, i64 4
  store i32 1, ptr %.sink57, align 4, !tbaa !8
  store i32 131096, ptr %77, align 4
  %78 = getelementptr inbounds nuw i8, ptr %.sink57, i64 8
  store ptr %.sink, ptr %78, align 8, !tbaa !4
  %79 = getelementptr inbounds nuw i8, ptr %.sink57, i64 16
  store ptr %12, ptr %79, align 8, !tbaa !4
  ret ptr %.sink57
}